target datalayout = "e-m:e-p270:32:32-p271:32:32-p272:64:64-i64:64-i128:128-f80:128-n8:16:32:64-S128"
target triple = "x86_64-pc-linux-gnu"

%"class.testing::KilledBySignal" = type { i32 }

; Function Attrs: mustprogress nounwind uwtable
define hidden noundef zeroext i1 @_ZNK7testing14KilledBySignalclEi(ptr noundef nonnull align 4 dereferenceable(4) %0, i32 noundef %1) #6 align 2 {
  %3 = alloca ptr, align 8
  %4 = alloca i32, align 4
  store ptr %0, ptr %3, align 8
  store i32 %1, ptr %4, align 4
  %5 = load ptr, ptr %3, align 8
  %6 = load i32, ptr %4, align 4
  %7 = and i32 %6, 127
  %8 = add nsw i32 %7, 1
  %9 = trunc i32 %8 to i8
  %10 = sext i8 %9 to i32
  %11 = ashr i32 %10, 1
  %12 = icmp sgt i32 %11, 0
  br i1 %12, label %13, label %19

13:                                               ; preds = %2
  %14 = load i32, ptr %4, align 4
  %15 = and i32 %14, 127
  %16 = getelementptr inbounds nuw %"class.testing::KilledBySignal", ptr %5, i32 0, i32 0
  %17 = load i32, ptr %16, align 4
  %18 = icmp eq i32 %15, %17
  br label %19

19:                                               ; preds = %13, %2
  %20 = phi i1 [ false, %2 ], [ %18, %13 ]
  ret i1 %20
}