; Function Attrs: mustprogress nofree norecurse nosync nounwind willreturn memory(argmem: read) uwtable
define hidden noundef zeroext i1 @_ZNK7testing14KilledBySignalclEi(ptr noundef nonnull readonly align 4 captures(none) dereferenceable(4) %0, i32 noundef %1) local_unnamed_addr #14 align 2 {
  %3 = and i32 %1, 127
  %4 = shl nuw nsw i32 %3, 24
  %sext = add nuw i32 %4, 16777216
  %5 = icmp sgt i32 %sext, 33554431
  %6 = load i32, ptr %0, align 4
  %7 = icmp eq i32 %3, %6
  %8 = select i1 %5, i1 %7, i1 false
  ret i1 %8
}